target datalayout = "e-m:e-p270:32:32-p271:32:32-p272:64:64-i64:64-i128:128-f80:128-n8:16:32:64-S128"
target triple = "x86_64-pc-linux-gnu"

%struct.drwav_fmt = type { i16, i16, i32, i32, i16, i16, i16, i16, i32, [16 x i8] }
%struct.drwav_allocation_callbacks = type { ptr, ptr, ptr, ptr }
%struct.drwav = type { ptr, ptr, ptr, ptr, %struct.drwav_allocation_callbacks, i32, %struct.drwav_fmt, i32, i16, i16, i16, i64, i64, i64, i64, i64, i64, i32, ptr, i32, %struct.drwav__memory_stream, %struct.drwav__memory_stream_write, %struct.anon.57, %struct.anon.58, %struct.anon.59 }
%struct.drwav__memory_stream = type { ptr, i64, i64 }
%struct.drwav__memory_stream_write = type { ptr, ptr, i64, i64, i64 }
%struct.anon.57 = type { i32, [2 x i16], [2 x i32], [4 x i32], i32, [2 x [2 x i32]] }
%struct.anon.58 = type { i32, [2 x i32], [2 x i32], [16 x i32], i32 }
%struct.anon.59 = type { i8, i8 }

@.str.171 = private unnamed_addr constant [3 x i32] [i32 114, i32 98, i32 0], align 4

; Function Attrs: nounwind uwtable
define internal void @drwav_copy_allocation_callbacks_or_defaults(ptr dead_on_unwind noalias writable sret(%struct.drwav_allocation_callbacks) align 8 %0, ptr noundef %1) #0 {
  %3 = alloca ptr, align 8
  store ptr %1, ptr %3, align 8
  %4 = load ptr, ptr %3, align 8
  %5 = icmp ne ptr %4, null
  br i1 %5, label %6, label %8

6:                                                ; preds = %2
  %7 = load ptr, ptr %3, align 8
  call void @llvm.memcpy.p0.p0.i64(ptr align 8 %0, ptr align 8 %7, i64 32, i1 false)
  br label %13

8:                                                ; preds = %2
  %9 = getelementptr inbounds nuw %struct.drwav_allocation_callbacks, ptr %0, i32 0, i32 0
  store ptr null, ptr %9, align 8
  %10 = getelementptr inbounds nuw %struct.drwav_allocation_callbacks, ptr %0, i32 0, i32 1
  store ptr @drwav__malloc_default, ptr %10, align 8
  %11 = getelementptr inbounds nuw %struct.drwav_allocation_callbacks, ptr %0, i32 0, i32 2
  store ptr @drwav__realloc_default, ptr %11, align 8
  %12 = getelementptr inbounds nuw %struct.drwav_allocation_callbacks, ptr %0, i32 0, i32 3
  store ptr @drwav__free_default, ptr %12, align 8
  br label %13

13:                                               ; preds = %8, %6
  ret void
}

; Function Attrs: nounwind uwtable
define internal i32 @drwav_preinit(ptr noundef %0, ptr noundef %1, ptr noundef %2, ptr noundef %3, ptr noundef %4) #0 {
  %6 = alloca i32, align 4
  %7 = alloca ptr, align 8
  %8 = alloca ptr, align 8
  %9 = alloca ptr, align 8
  %10 = alloca ptr, align 8
  %11 = alloca ptr, align 8
  %12 = alloca %struct.drwav_allocation_callbacks, align 8
  store ptr %0, ptr %7, align 8
  store ptr %1, ptr %8, align 8
  store ptr %2, ptr %9, align 8
  store ptr %3, ptr %10, align 8
  store ptr %4, ptr %11, align 8
  %13 = load ptr, ptr %7, align 8
  %14 = icmp eq ptr %13, null
  br i1 %14, label %21, label %15

15:                                               ; preds = %5
  %16 = load ptr, ptr %8, align 8
  %17 = icmp eq ptr %16, null
  br i1 %17, label %21, label %18

18:                                               ; preds = %15
  %19 = load ptr, ptr %9, align 8
  %20 = icmp eq ptr %19, null
  br i1 %20, label %21, label %22

21:                                               ; preds = %18, %15, %5
  store i32 0, ptr %6, align 4
  br label %55

22:                                               ; preds = %18
  %23 = load ptr, ptr %7, align 8
  call void @llvm.memset.p0.i64(ptr align 8 %23, i8 0, i64 400, i1 false)
  %24 = load ptr, ptr %8, align 8
  %25 = load ptr, ptr %7, align 8
  %26 = getelementptr inbounds nuw %struct.drwav, ptr %25, i32 0, i32 0
  store ptr %24, ptr %26, align 8
  %27 = load ptr, ptr %9, align 8
  %28 = load ptr, ptr %7, align 8
  %29 = getelementptr inbounds nuw %struct.drwav, ptr %28, i32 0, i32 2
  store ptr %27, ptr %29, align 8
  %30 = load ptr, ptr %10, align 8
  %31 = load ptr, ptr %7, align 8
  %32 = getelementptr inbounds nuw %struct.drwav, ptr %31, i32 0, i32 3
  store ptr %30, ptr %32, align 8
  %33 = load ptr, ptr %7, align 8
  %34 = getelementptr inbounds nuw %struct.drwav, ptr %33, i32 0, i32 4
  call void @llvm.lifetime.start.p0(i64 32, ptr %12) #21
  %35 = load ptr, ptr %11, align 8
  call void @drwav_copy_allocation_callbacks_or_defaults(ptr dead_on_unwind writable sret(%struct.drwav_allocation_callbacks) align 8 %12, ptr noundef %35)
  call void @llvm.memcpy.p0.p0.i64(ptr align 8 %34, ptr align 8 %12, i64 32, i1 false)
  call void @llvm.lifetime.end.p0(i64 32, ptr %12) #21
  %36 = load ptr, ptr %7, align 8
  %37 = getelementptr inbounds nuw %struct.drwav, ptr %36, i32 0, i32 4
  %38 = getelementptr inbounds nuw %struct.drwav_allocation_callbacks, ptr %37, i32 0, i32 3
  %39 = load ptr, ptr %38, align 8
  %40 = icmp eq ptr %39, null
  br i1 %40, label %53, label %41

41:                                               ; preds = %22
  %42 = load ptr, ptr %7, align 8
  %43 = getelementptr inbounds nuw %struct.drwav, ptr %42, i32 0, i32 4
  %44 = getelementptr inbounds nuw %struct.drwav_allocation_callbacks, ptr %43, i32 0, i32 1
  %45 = load ptr, ptr %44, align 8
  %46 = icmp eq ptr %45, null
  br i1 %46, label %47, label %54

47:                                               ; preds = %41
  %48 = load ptr, ptr %7, align 8
  %49 = getelementptr inbounds nuw %struct.drwav, ptr %48, i32 0, i32 4
  %50 = getelementptr inbounds nuw %struct.drwav_allocation_callbacks, ptr %49, i32 0, i32 2
  %51 = load ptr, ptr %50, align 8
  %52 = icmp eq ptr %51, null
  br i1 %52, label %53, label %54

53:                                               ; preds = %47, %22
  store i32 0, ptr %6, align 4
  br label %55

54:                                               ; preds = %47, %41
  store i32 1, ptr %6, align 4
  br label %55

55:                                               ; preds = %54, %53, %21
  %56 = load i32, ptr %6, align 4
  ret i32 %56
}

; Function Attrs: nounwind uwtable
define internal i32 @drwav_init_file__internal_FILE(ptr noundef %0, ptr noundef %1, ptr noundef %2, ptr noundef %3, i32 noundef %4, ptr noundef %5) #0 {
  %7 = alloca i32, align 4
  %8 = alloca ptr, align 8
  %9 = alloca ptr, align 8
  %10 = alloca ptr, align 8
  %11 = alloca ptr, align 8
  %12 = alloca i32, align 4
  %13 = alloca ptr, align 8
  %14 = alloca i32, align 4
  %15 = alloca i32, align 4
  store ptr %0, ptr %8, align 8
  store ptr %1, ptr %9, align 8
  store ptr %2, ptr %10, align 8
  store ptr %3, ptr %11, align 8
  store i32 %4, ptr %12, align 4
  store ptr %5, ptr %13, align 8
  call void @llvm.lifetime.start.p0(i64 4, ptr %14) #21
  %16 = load ptr, ptr %8, align 8
  %17 = load ptr, ptr %9, align 8
  %18 = load ptr, ptr %13, align 8
  %19 = call i32 @drwav_preinit(ptr noundef %16, ptr noundef @drwav__on_read_stdio, ptr noundef @drwav__on_seek_stdio, ptr noundef %17, ptr noundef %18)
  store i32 %19, ptr %14, align 4
  %20 = load i32, ptr %14, align 4
  %21 = icmp ne i32 %20, 1
  br i1 %21, label %22, label %26

22:                                               ; preds = %6
  %23 = load ptr, ptr %9, align 8
  %24 = call i32 @fclose(ptr noundef %23)
  %25 = load i32, ptr %14, align 4
  store i32 %25, ptr %7, align 4
  store i32 1, ptr %15, align 4
  br label %39

26:                                               ; preds = %6
  %27 = load ptr, ptr %8, align 8
  %28 = load ptr, ptr %10, align 8
  %29 = load ptr, ptr %11, align 8
  %30 = load i32, ptr %12, align 4
  %31 = call i32 @drwav_init__internal(ptr noundef %27, ptr noundef %28, ptr noundef %29, i32 noundef %30)
  store i32 %31, ptr %14, align 4
  %32 = load i32, ptr %14, align 4
  %33 = icmp ne i32 %32, 1
  br i1 %33, label %34, label %38

34:                                               ; preds = %26
  %35 = load ptr, ptr %9, align 8
  %36 = call i32 @fclose(ptr noundef %35)
  %37 = load i32, ptr %14, align 4
  store i32 %37, ptr %7, align 4
  store i32 1, ptr %15, align 4
  br label %39

38:                                               ; preds = %26
  store i32 1, ptr %7, align 4
  store i32 1, ptr %15, align 4
  br label %39

39:                                               ; preds = %38, %34, %22
  call void @llvm.lifetime.end.p0(i64 4, ptr %14) #21
  %40 = load i32, ptr %7, align 4
  ret i32 %40
}

; Function Attrs: nounwind uwtable
define hidden i32 @drwav_init_file_ex_w(ptr noundef %0, ptr noundef %1, ptr noundef %2, ptr noundef %3, i32 noundef %4, ptr noundef %5) #0 {
  %7 = alloca i32, align 4
  %8 = alloca ptr, align 8
  %9 = alloca ptr, align 8
  %10 = alloca ptr, align 8
  %11 = alloca ptr, align 8
  %12 = alloca i32, align 4
  %13 = alloca ptr, align 8
  %14 = alloca ptr, align 8
  %15 = alloca i32, align 4
  store ptr %0, ptr %8, align 8
  store ptr %1, ptr %9, align 8
  store ptr %2, ptr %10, align 8
  store ptr %3, ptr %11, align 8
  store i32 %4, ptr %12, align 4
  store ptr %5, ptr %13, align 8
  call void @llvm.lifetime.start.p0(i64 8, ptr %14) #21
  %16 = load ptr, ptr %9, align 8
  %17 = load ptr, ptr %13, align 8
  %18 = call i32 @drwav_wfopen(ptr noundef %14, ptr noundef %16, ptr noundef @.str.171, ptr noundef %17)
  %19 = icmp ne i32 %18, 0
  br i1 %19, label %20, label %21

20:                                               ; preds = %6
  store i32 0, ptr %7, align 4
  store i32 1, ptr %15, align 4
  br label %29

21:                                               ; preds = %6
  %22 = load ptr, ptr %8, align 8
  %23 = load ptr, ptr %14, align 8
  %24 = load ptr, ptr %10, align 8
  %25 = load ptr, ptr %11, align 8
  %26 = load i32, ptr %12, align 4
  %27 = load ptr, ptr %13, align 8
  %28 = call i32 @drwav_init_file__internal_FILE(ptr noundef %22, ptr noundef %23, ptr noundef %24, ptr noundef %25, i32 noundef %26, ptr noundef %27)
  store i32 %28, ptr %7, align 4
  store i32 1, ptr %15, align 4
  br label %29

29:                                               ; preds = %21, %20
  call void @llvm.lifetime.end.p0(i64 8, ptr %14) #21
  %30 = load i32, ptr %7, align 4
  ret i32 %30
}

; Function Attrs: nounwind uwtable
define hidden i32 @drwav_init_file_w(ptr noundef %0, ptr noundef %1, ptr noundef %2) #0 {
  %4 = alloca ptr, align 8
  %5 = alloca ptr, align 8
  %6 = alloca ptr, align 8
  store ptr %0, ptr %4, align 8
  store ptr %1, ptr %5, align 8
  store ptr %2, ptr %6, align 8
  %7 = load ptr, ptr %4, align 8
  %8 = load ptr, ptr %5, align 8
  %9 = load ptr, ptr %6, align 8
  %10 = call i32 @drwav_init_file_ex_w(ptr noundef %7, ptr noundef %8, ptr noundef null, ptr noundef null, i32 noundef 0, ptr noundef %9)
  ret i32 %10
}

; Function Attrs: nounwind uwtable
define hidden ptr @drwav_open_file_and_read_pcm_frames_s16_w(ptr noundef %0, ptr noundef %1, ptr noundef %2, ptr noundef %3, ptr noundef %4) #0 {
  %6 = alloca ptr, align 8
  %7 = alloca ptr, align 8
  %8 = alloca ptr, align 8
  %9 = alloca ptr, align 8
  %10 = alloca ptr, align 8
  %11 = alloca ptr, align 8
  %12 = alloca %struct.drwav, align 8
  %13 = alloca i32, align 4
  store ptr %0, ptr %7, align 8
  store ptr %1, ptr %8, align 8
  store ptr %2, ptr %9, align 8
  store ptr %3, ptr %10, align 8
  store ptr %4, ptr %11, align 8
  call void @llvm.lifetime.start.p0(i64 400, ptr %12) #21
  %14 = load ptr, ptr %9, align 8
  %15 = icmp ne ptr %14, null
  br i1 %15, label %16, label %18

16:                                               ; preds = %5
  %17 = load ptr, ptr %9, align 8
  store i32 0, ptr %17, align 4
  br label %18

18:                                               ; preds = %16, %5
  %19 = load ptr, ptr %8, align 8
  %20 = icmp ne ptr %19, null
  br i1 %20, label %21, label %23

21:                                               ; preds = %18
  %22 = load ptr, ptr %8, align 8
  store i32 0, ptr %22, align 4
  br label %23

23:                                               ; preds = %21, %18
  %24 = load ptr, ptr %10, align 8
  %25 = icmp ne ptr %24, null
  br i1 %25, label %26, label %28

26:                                               ; preds = %23
  %27 = load ptr, ptr %10, align 8
  store i64 0, ptr %27, align 8
  br label %28

28:                                               ; preds = %26, %23
  %29 = load ptr, ptr %7, align 8
  %30 = load ptr, ptr %11, align 8
  %31 = call i32 @drwav_init_file_w(ptr noundef %12, ptr noundef %29, ptr noundef %30)
  %32 = icmp ne i32 %31, 0
  br i1 %32, label %34, label %33

33:                                               ; preds = %28
  store ptr null, ptr %6, align 8
  store i32 1, ptr %13, align 4
  br label %39

34:                                               ; preds = %28
  %35 = load ptr, ptr %8, align 8
  %36 = load ptr, ptr %9, align 8
  %37 = load ptr, ptr %10, align 8
  %38 = call ptr @drwav__read_pcm_frames_and_close_s16(ptr noundef %12, ptr noundef %35, ptr noundef %36, ptr noundef %37)
  store ptr %38, ptr %6, align 8
  store i32 1, ptr %13, align 4
  br label %39

39:                                               ; preds = %34, %33
  call void @llvm.lifetime.end.p0(i64 400, ptr %12) #21
  %40 = load ptr, ptr %6, align 8
  ret ptr %40
}