; Function Attrs: nounwind uwtable
define hidden ptr @drwav_open_file_and_read_pcm_frames_s16_w(ptr noundef %0, ptr noundef captures(address_is_null) %1, ptr noundef captures(address_is_null) %2, ptr noundef captures(address_is_null) %3, ptr noundef captures(address_is_null) %4) local_unnamed_addr #7 {
  %6 = alloca ptr, align 8
  %7 = alloca %struct.drwav, align 8
  call void @llvm.lifetime.start.p0(i64 400, ptr nonnull %7) #72
  %.not = icmp eq ptr %2, null
  br i1 %.not, label %9, label %8

8:                                                ; preds = %5
  store i32 0, ptr %2, align 4
  br label %9

9:                                                ; preds = %8, %5
  %.not15 = icmp eq ptr %1, null
  br i1 %.not15, label %11, label %10

10:                                               ; preds = %9
  store i32 0, ptr %1, align 4
  br label %11

11:                                               ; preds = %10, %9
  %.not16 = icmp eq ptr %3, null
  br i1 %.not16, label %13, label %12

12:                                               ; preds = %11
  store i64 0, ptr %3, align 8
  br label %13

13:                                               ; preds = %12, %11
  call void @llvm.lifetime.start.p0(i64 8, ptr nonnull %6) #72
  %14 = call fastcc i32 @drwav_wfopen(ptr noundef %6, ptr noundef %0, ptr noundef nonnull @.str.171, ptr noundef %4)
  %.not.i.i = icmp eq i32 %14, 0
  br i1 %.not.i.i, label %15, label %drwav_init_file_w.exit.thread

15:                                               ; preds = %13
  %16 = load ptr, ptr %6, align 8
  %17 = getelementptr inbounds nuw i8, ptr %7, i64 8
  call void @llvm.memset.p0.i64(ptr noundef nonnull align 8 dereferenceable(400) %17, i8 0, i64 392, i1 false)
  store ptr @drwav__on_read_stdio, ptr %7, align 8
  %18 = getelementptr inbounds nuw i8, ptr %7, i64 16
  store ptr @drwav__on_seek_stdio, ptr %18, align 8
  %19 = getelementptr inbounds nuw i8, ptr %7, i64 24
  store ptr %16, ptr %19, align 8
  %.not.i.i.i.i.i = icmp eq ptr %4, null
  br i1 %.not.i.i.i.i.i, label %.thread.i.i.i.i, label %drwav_copy_allocation_callbacks_or_defaults.exit.i.i.i.i

.thread.i.i.i.i:                                  ; preds = %15
  %.sroa.5.0..sroa_idx30.i.i.i.i = getelementptr inbounds nuw i8, ptr %7, i64 40
  store ptr @drwav__malloc_default, ptr %.sroa.5.0..sroa_idx30.i.i.i.i, align 8
  %.sroa.6.0..sroa_idx31.i.i.i.i = getelementptr inbounds nuw i8, ptr %7, i64 48
  store ptr @drwav__realloc_default, ptr %.sroa.6.0..sroa_idx31.i.i.i.i, align 8
  %.sroa.7.0..sroa_idx32.i.i.i.i = getelementptr inbounds nuw i8, ptr %7, i64 56
  store ptr @drwav__free_default, ptr %.sroa.7.0..sroa_idx32.i.i.i.i, align 8
  br label %drwav_preinit.exit.i.i.i

drwav_copy_allocation_callbacks_or_defaults.exit.i.i.i.i: ; preds = %15
  %20 = getelementptr inbounds nuw i8, ptr %7, i64 32
  %.sroa.0.0.copyload21.i.i.i.i = load ptr, ptr %4, align 8
  %.sroa.5.0..sroa_idx22.i.i.i.i = getelementptr inbounds nuw i8, ptr %4, i64 8
  %.sroa.5.0.copyload23.i.i.i.i = load ptr, ptr %.sroa.5.0..sroa_idx22.i.i.i.i, align 8
  %.sroa.6.0..sroa_idx24.i.i.i.i = getelementptr inbounds nuw i8, ptr %4, i64 16
  %.sroa.6.0.copyload25.i.i.i.i = load ptr, ptr %.sroa.6.0..sroa_idx24.i.i.i.i, align 8
  %.sroa.7.0..sroa_idx26.i.i.i.i = getelementptr inbounds nuw i8, ptr %4, i64 24
  %.sroa.7.0.copyload27.i.i.i.i = load ptr, ptr %.sroa.7.0..sroa_idx26.i.i.i.i, align 8
  store ptr %.sroa.0.0.copyload21.i.i.i.i, ptr %20, align 8
  %.sroa.5.0..sroa_idx.i.i.i.i = getelementptr inbounds nuw i8, ptr %7, i64 40
  store ptr %.sroa.5.0.copyload23.i.i.i.i, ptr %.sroa.5.0..sroa_idx.i.i.i.i, align 8
  %.sroa.6.0..sroa_idx.i.i.i.i = getelementptr inbounds nuw i8, ptr %7, i64 48
  store ptr %.sroa.6.0.copyload25.i.i.i.i, ptr %.sroa.6.0..sroa_idx.i.i.i.i, align 8
  %.sroa.7.0..sroa_idx.i.i.i.i = getelementptr inbounds nuw i8, ptr %7, i64 56
  store ptr %.sroa.7.0.copyload27.i.i.i.i, ptr %.sroa.7.0..sroa_idx.i.i.i.i, align 8
  %21 = icmp eq ptr %.sroa.7.0.copyload27.i.i.i.i, null
  br i1 %21, label %.sink.split.i.i.i, label %22

22:                                               ; preds = %drwav_copy_allocation_callbacks_or_defaults.exit.i.i.i.i
  %23 = icmp eq ptr %.sroa.5.0.copyload23.i.i.i.i, null
  %24 = icmp eq ptr %.sroa.6.0.copyload25.i.i.i.i, null
  %or.cond33.i.i.i.i = select i1 %23, i1 %24, i1 false
  br i1 %or.cond33.i.i.i.i, label %.sink.split.i.i.i, label %drwav_preinit.exit.i.i.i

drwav_preinit.exit.i.i.i:                         ; preds = %22, %.thread.i.i.i.i
  %25 = call fastcc i32 @drwav_init__internal(ptr noundef nonnull %7, ptr noundef null, ptr noundef null, i32 noundef 0)
  %.not.not15.i.i.i = icmp eq i32 %25, 0
  br i1 %.not.not15.i.i.i, label %.sink.split.i.i.i, label %27

.sink.split.i.i.i:                                ; preds = %drwav_preinit.exit.i.i.i, %22, %drwav_copy_allocation_callbacks_or_defaults.exit.i.i.i.i
  %26 = call i32 @fclose(ptr noundef %16)
  br label %drwav_init_file_w.exit.thread

drwav_init_file_w.exit.thread:                    ; preds = %13, %.sink.split.i.i.i
  call void @llvm.lifetime.end.p0(i64 8, ptr nonnull %6) #72
  br label %29

27:                                               ; preds = %drwav_preinit.exit.i.i.i
  call void @llvm.lifetime.end.p0(i64 8, ptr nonnull %6) #72
  %28 = call fastcc ptr @drwav__read_pcm_frames_and_close_s16(ptr noundef %7, ptr noundef %1, ptr noundef %2, ptr noundef %3)
  br label %29

29:                                               ; preds = %drwav_init_file_w.exit.thread, %27
  %.0 = phi ptr [ %28, %27 ], [ null, %drwav_init_file_w.exit.thread ]
  call void @llvm.lifetime.end.p0(i64 400, ptr nonnull %7) #72
  ret ptr %.0
}